target datalayout = "e-m:e-p270:32:32-p271:32:32-p272:64:64-i64:64-i128:128-f80:128-n8:16:32:64-S128"
target triple = "x86_64-pc-linux-gnu"

%struct.hiredisAllocFuncs = type { ptr, ptr, ptr, ptr, ptr }
%struct.redisReply = type { i32, i64, double, i64, ptr, [4 x i8], i64, ptr }
%struct.redisReadTask = type { i32, i64, i32, ptr, ptr, ptr }

@hiredisAllocFns = external global %struct.hiredisAllocFuncs, align 8

; Function Attrs: inlinehint nounwind uwtable
define internal ptr @hi_calloc(i64 noundef %0, i64 noundef %1) #2 {
  %3 = alloca ptr, align 8
  %4 = alloca i64, align 8
  %5 = alloca i64, align 8
  store i64 %0, ptr %4, align 8, !tbaa !19
  store i64 %1, ptr %5, align 8, !tbaa !19
  %6 = load i64, ptr %5, align 8, !tbaa !19
  %7 = udiv i64 -1, %6
  %8 = load i64, ptr %4, align 8, !tbaa !19
  %9 = icmp ult i64 %7, %8
  br i1 %9, label %10, label %11

10:                                               ; preds = %2
  store ptr null, ptr %3, align 8
  br label %16

11:                                               ; preds = %2
  %12 = load ptr, ptr getelementptr inbounds nuw (%struct.hiredisAllocFuncs, ptr @hiredisAllocFns, i32 0, i32 1), align 8, !tbaa !97
  %13 = load i64, ptr %4, align 8, !tbaa !19
  %14 = load i64, ptr %5, align 8, !tbaa !19
  %15 = call ptr %12(i64 noundef %13, i64 noundef %14)
  store ptr %15, ptr %3, align 8
  br label %16

16:                                               ; preds = %11, %10
  %17 = load ptr, ptr %3, align 8
  ret ptr %17
}

; Function Attrs: inlinehint nounwind uwtable
define internal ptr @hi_malloc(i64 noundef %0) #2 {
  %2 = alloca i64, align 8
  store i64 %0, ptr %2, align 8, !tbaa !19
  %3 = load ptr, ptr @hiredisAllocFns, align 8, !tbaa !36
  %4 = load i64, ptr %2, align 8, !tbaa !19
  %5 = call ptr %3(i64 noundef %4)
  ret ptr %5
}

; Function Attrs: nounwind uwtable
define internal ptr @createReplyObject(i32 noundef %0) #0 {
  %2 = alloca ptr, align 8
  %3 = alloca i32, align 4
  %4 = alloca ptr, align 8
  %5 = alloca i32, align 4
  store i32 %0, ptr %3, align 4, !tbaa !29
  call void @llvm.lifetime.start.p0(i64 8, ptr %4) #10
  %6 = call ptr @hi_calloc(i64 noundef 1, i64 noundef 64)
  store ptr %6, ptr %4, align 8, !tbaa !8
  %7 = load ptr, ptr %4, align 8, !tbaa !8
  %8 = icmp eq ptr %7, null
  br i1 %8, label %9, label %10

9:                                                ; preds = %1
  store ptr null, ptr %2, align 8
  store i32 1, ptr %5, align 4
  br label %15

10:                                               ; preds = %1
  %11 = load i32, ptr %3, align 4, !tbaa !29
  %12 = load ptr, ptr %4, align 8, !tbaa !8
  %13 = getelementptr inbounds nuw %struct.redisReply, ptr %12, i32 0, i32 0
  store i32 %11, ptr %13, align 8, !tbaa !10
  %14 = load ptr, ptr %4, align 8, !tbaa !8
  store ptr %14, ptr %2, align 8
  store i32 1, ptr %5, align 4
  br label %15

15:                                               ; preds = %10, %9
  call void @llvm.lifetime.end.p0(i64 8, ptr %4) #10
  %16 = load ptr, ptr %2, align 8
  ret ptr %16
}

; Function Attrs: nounwind uwtable
define internal ptr @createStringObject(ptr noundef %0, ptr noundef %1, i64 noundef %2) #0 {
  %4 = alloca ptr, align 8
  %5 = alloca ptr, align 8
  %6 = alloca ptr, align 8
  %7 = alloca i64, align 8
  %8 = alloca ptr, align 8
  %9 = alloca ptr, align 8
  %10 = alloca ptr, align 8
  %11 = alloca i32, align 4
  store ptr %0, ptr %5, align 8, !tbaa !86
  store ptr %1, ptr %6, align 8, !tbaa !26
  store i64 %2, ptr %7, align 8, !tbaa !19
  call void @llvm.lifetime.start.p0(i64 8, ptr %8) #10
  call void @llvm.lifetime.start.p0(i64 8, ptr %9) #10
  call void @llvm.lifetime.start.p0(i64 8, ptr %10) #10
  %12 = load ptr, ptr %5, align 8, !tbaa !86
  %13 = getelementptr inbounds nuw %struct.redisReadTask, ptr %12, i32 0, i32 0
  %14 = load i32, ptr %13, align 8, !tbaa !88
  %15 = call ptr @createReplyObject(i32 noundef %14)
  store ptr %15, ptr %8, align 8, !tbaa !8
  %16 = load ptr, ptr %8, align 8, !tbaa !8
  %17 = icmp eq ptr %16, null
  br i1 %17, label %18, label %19

18:                                               ; preds = %3
  store ptr null, ptr %4, align 8
  store i32 1, ptr %11, align 4
  br label %97

19:                                               ; preds = %3
  %20 = load ptr, ptr %5, align 8, !tbaa !86
  %21 = getelementptr inbounds nuw %struct.redisReadTask, ptr %20, i32 0, i32 0
  %22 = load i32, ptr %21, align 8, !tbaa !88
  %23 = icmp eq i32 %22, 14
  br i1 %23, label %24, label %53

24:                                               ; preds = %19
  %25 = load i64, ptr %7, align 8, !tbaa !19
  %26 = sub i64 %25, 4
  %27 = add i64 %26, 1
  %28 = call ptr @hi_malloc(i64 noundef %27)
  store ptr %28, ptr %10, align 8, !tbaa !26
  %29 = load ptr, ptr %10, align 8, !tbaa !26
  %30 = icmp eq ptr %29, null
  br i1 %30, label %31, label %32

31:                                               ; preds = %24
  br label %95

32:                                               ; preds = %24
  %33 = load ptr, ptr %8, align 8, !tbaa !8
  %34 = getelementptr inbounds nuw %struct.redisReply, ptr %33, i32 0, i32 5
  %35 = getelementptr inbounds [4 x i8], ptr %34, i64 0, i64 0
  %36 = load ptr, ptr %6, align 8, !tbaa !26
  call void @llvm.memcpy.p0.p0.i64(ptr align 8 %35, ptr align 1 %36, i64 3, i1 false)
  %37 = load ptr, ptr %8, align 8, !tbaa !8
  %38 = getelementptr inbounds nuw %struct.redisReply, ptr %37, i32 0, i32 5
  %39 = getelementptr inbounds [4 x i8], ptr %38, i64 0, i64 3
  store i8 0, ptr %39, align 1, !tbaa !30
  %40 = load ptr, ptr %10, align 8, !tbaa !26
  %41 = load ptr, ptr %6, align 8, !tbaa !26
  %42 = getelementptr inbounds i8, ptr %41, i64 4
  %43 = load i64, ptr %7, align 8, !tbaa !19
  %44 = sub i64 %43, 4
  call void @llvm.memcpy.p0.p0.i64(ptr align 1 %40, ptr align 1 %42, i64 %44, i1 false)
  %45 = load ptr, ptr %10, align 8, !tbaa !26
  %46 = load i64, ptr %7, align 8, !tbaa !19
  %47 = sub i64 %46, 4
  %48 = getelementptr inbounds nuw i8, ptr %45, i64 %47
  store i8 0, ptr %48, align 1, !tbaa !30
  %49 = load i64, ptr %7, align 8, !tbaa !19
  %50 = sub i64 %49, 4
  %51 = load ptr, ptr %8, align 8, !tbaa !8
  %52 = getelementptr inbounds nuw %struct.redisReply, ptr %51, i32 0, i32 3
  store i64 %50, ptr %52, align 8, !tbaa !90
  br label %70

53:                                               ; preds = %19
  %54 = load i64, ptr %7, align 8, !tbaa !19
  %55 = add i64 %54, 1
  %56 = call ptr @hi_malloc(i64 noundef %55)
  store ptr %56, ptr %10, align 8, !tbaa !26
  %57 = load ptr, ptr %10, align 8, !tbaa !26
  %58 = icmp eq ptr %57, null
  br i1 %58, label %59, label %60

59:                                               ; preds = %53
  br label %95

60:                                               ; preds = %53
  %61 = load ptr, ptr %10, align 8, !tbaa !26
  %62 = load ptr, ptr %6, align 8, !tbaa !26
  %63 = load i64, ptr %7, align 8, !tbaa !19
  call void @llvm.memcpy.p0.p0.i64(ptr align 1 %61, ptr align 1 %62, i64 %63, i1 false)
  %64 = load ptr, ptr %10, align 8, !tbaa !26
  %65 = load i64, ptr %7, align 8, !tbaa !19
  %66 = getelementptr inbounds nuw i8, ptr %64, i64 %65
  store i8 0, ptr %66, align 1, !tbaa !30
  %67 = load i64, ptr %7, align 8, !tbaa !19
  %68 = load ptr, ptr %8, align 8, !tbaa !8
  %69 = getelementptr inbounds nuw %struct.redisReply, ptr %68, i32 0, i32 3
  store i64 %67, ptr %69, align 8, !tbaa !90
  br label %70

70:                                               ; preds = %60, %32
  %71 = load ptr, ptr %10, align 8, !tbaa !26
  %72 = load ptr, ptr %8, align 8, !tbaa !8
  %73 = getelementptr inbounds nuw %struct.redisReply, ptr %72, i32 0, i32 4
  store ptr %71, ptr %73, align 8, !tbaa !21
  %74 = load ptr, ptr %5, align 8, !tbaa !86
  %75 = getelementptr inbounds nuw %struct.redisReadTask, ptr %74, i32 0, i32 4
  %76 = load ptr, ptr %75, align 8, !tbaa !91
  %77 = icmp ne ptr %76, null
  br i1 %77, label %78, label %93

78:                                               ; preds = %70
  %79 = load ptr, ptr %5, align 8, !tbaa !86
  %80 = getelementptr inbounds nuw %struct.redisReadTask, ptr %79, i32 0, i32 4
  %81 = load ptr, ptr %80, align 8, !tbaa !91
  %82 = getelementptr inbounds nuw %struct.redisReadTask, ptr %81, i32 0, i32 3
  %83 = load ptr, ptr %82, align 8, !tbaa !92
  store ptr %83, ptr %9, align 8, !tbaa !8
  %84 = load ptr, ptr %8, align 8, !tbaa !8
  %85 = load ptr, ptr %9, align 8, !tbaa !8
  %86 = getelementptr inbounds nuw %struct.redisReply, ptr %85, i32 0, i32 7
  %87 = load ptr, ptr %86, align 8, !tbaa !18
  %88 = load ptr, ptr %5, align 8, !tbaa !86
  %89 = getelementptr inbounds nuw %struct.redisReadTask, ptr %88, i32 0, i32 2
  %90 = load i32, ptr %89, align 8, !tbaa !93
  %91 = sext i32 %90 to i64
  %92 = getelementptr inbounds ptr, ptr %87, i64 %91
  store ptr %84, ptr %92, align 8, !tbaa !8
  br label %93

93:                                               ; preds = %78, %70
  %94 = load ptr, ptr %8, align 8, !tbaa !8
  store ptr %94, ptr %4, align 8
  store i32 1, ptr %11, align 4
  br label %97

95:                                               ; preds = %59, %31
  %96 = load ptr, ptr %8, align 8, !tbaa !8
  call void @freeReplyObject(ptr noundef %96)
  store ptr null, ptr %4, align 8
  store i32 1, ptr %11, align 4
  br label %97

97:                                               ; preds = %95, %93, %18
  call void @llvm.lifetime.end.p0(i64 8, ptr %10) #10
  call void @llvm.lifetime.end.p0(i64 8, ptr %9) #10
  call void @llvm.lifetime.end.p0(i64 8, ptr %8) #10
  %98 = load ptr, ptr %4, align 8
  ret ptr %98
}