; Function Attrs: nounwind uwtable
define internal ptr @createStringObject(ptr noundef readonly captures(none) %0, ptr noundef readonly captures(none) %1, i64 noundef %2) #0 {
  %4 = load i32, ptr %0, align 8, !tbaa !76
  %5 = load ptr, ptr getelementptr inbounds nuw (i8, ptr @hiredisAllocFns, i64 8), align 8, !tbaa !59
  %6 = tail call ptr %5(i64 noundef 1, i64 noundef 64) #13
  %7 = icmp eq ptr %6, null
  br i1 %7, label %createReplyObject.exit.thread, label %8

8:                                                ; preds = %3
  store i32 %4, ptr %6, align 8, !tbaa !4
  %9 = load i32, ptr %0, align 8, !tbaa !76
  %10 = icmp eq i32 %9, 14
  %11 = load ptr, ptr @hiredisAllocFns, align 8, !tbaa !31
  br i1 %10, label %12, label %22

12:                                               ; preds = %8
  %13 = add i64 %2, -3
  %14 = tail call ptr %11(i64 noundef %13) #13
  %15 = icmp eq ptr %14, null
  br i1 %15, label %42, label %16

16:                                               ; preds = %12
  %17 = add i64 %2, -4
  %18 = getelementptr inbounds nuw i8, ptr %6, i64 40
  tail call void @llvm.memcpy.p0.p0.i64(ptr noundef nonnull align 8 dereferenceable(3) %18, ptr noundef nonnull align 1 dereferenceable(3) %1, i64 3, i1 false)
  %19 = getelementptr inbounds nuw i8, ptr %6, i64 43
  store i8 0, ptr %19, align 1, !tbaa !22
  %20 = getelementptr inbounds nuw i8, ptr %1, i64 4
  tail call void @llvm.memcpy.p0.p0.i64(ptr nonnull align 1 %14, ptr nonnull align 1 %20, i64 %17, i1 false)
  %21 = getelementptr inbounds nuw i8, ptr %14, i64 %17
  store i8 0, ptr %21, align 1, !tbaa !22
  br label %28

22:                                               ; preds = %8
  %23 = add i64 %2, 1
  %24 = tail call ptr %11(i64 noundef %23) #13
  %25 = icmp eq ptr %24, null
  br i1 %25, label %42, label %26

26:                                               ; preds = %22
  tail call void @llvm.memcpy.p0.p0.i64(ptr nonnull align 1 %24, ptr align 1 %1, i64 %2, i1 false)
  %27 = getelementptr inbounds nuw i8, ptr %24, i64 %2
  store i8 0, ptr %27, align 1, !tbaa !22
  br label %28

28:                                               ; preds = %26, %16
  %.sink = phi i64 [ %2, %26 ], [ %17, %16 ]
  %.0 = phi ptr [ %24, %26 ], [ %14, %16 ]
  %29 = getelementptr inbounds nuw i8, ptr %6, i64 24
  store i64 %.sink, ptr %29, align 8, !tbaa !79
  %30 = getelementptr inbounds nuw i8, ptr %6, i64 32
  store ptr %.0, ptr %30, align 8, !tbaa !19
  %31 = getelementptr inbounds nuw i8, ptr %0, i64 32
  %32 = load ptr, ptr %31, align 8, !tbaa !80
  %.not = icmp eq ptr %32, null
  br i1 %.not, label %createReplyObject.exit.thread, label %33

33:                                               ; preds = %28
  %34 = getelementptr inbounds nuw i8, ptr %32, i64 24
  %35 = load ptr, ptr %34, align 8, !tbaa !81
  %36 = getelementptr inbounds nuw i8, ptr %35, i64 56
  %37 = load ptr, ptr %36, align 8, !tbaa !15
  %38 = getelementptr inbounds nuw i8, ptr %0, i64 16
  %39 = load i32, ptr %38, align 8, !tbaa !82
  %40 = sext i32 %39 to i64
  %41 = getelementptr inbounds ptr, ptr %37, i64 %40
  store ptr %6, ptr %41, align 8, !tbaa !17
  br label %createReplyObject.exit.thread

42:                                               ; preds = %22, %12
  tail call void @freeReplyObject(ptr noundef nonnull %6)
  br label %createReplyObject.exit.thread

createReplyObject.exit.thread:                    ; preds = %3, %28, %33, %42
  %.033 = phi ptr [ null, %42 ], [ %6, %33 ], [ %6, %28 ], [ null, %3 ]
  ret ptr %.033
}